(dp1
S'doc:doc.html|jinja'
p2
V[["environment", {}]]
p3
sS'doc:script.py|pyg'
p4
V[["environment", {}]]
p5
sS'pattern:*.py|pyg'
p6
V[["environment", {}]]
p7
sS'pattern:*.py|py'
p8
V[["environment", {}]]
p9
sS'pattern:*.html|jinja'
p10
V[["environment", {}]]
p11
sS'doc:script.py|py'
p12
V[["environment", {}]]
p13
s.