(dp1
S'axiom_plugins'
p2
ccopy_reg
_reconstructor
p3
(ctwisted.plugin
CachedDropin
p4
c__builtin__
object
p5
NtRp6
(dp7
S'moduleName'
p8
S'twisted.plugins.axiom_plugins'
p9
sS'description'
p10
S'\nAxiom plugins for Twisted.\n'
p11
sS'plugins'
p12
(lp13
g3
(ctwisted.plugin
CachedPlugin
p14
g5
NtRp15
(dp16
S'provided'
p17
(lp18
ctwisted.plugin
IPlugin
p19
actwisted.application.service
IServiceMaker
p20
asS'dropin'
p21
g6
sS'name'
p22
S'AxiomaticStart'
p23
sg10
S'\n    L{IServiceMaker} plugin which gets an L{IService} from an Axiom store.\n    '
p24
sbasbs.