(lp0
(S'dtls'
p1
(lp2
S'dtls/prebuilt/mingw-x86/cygcrypto-1.0.0.dll'
p3
aS'dtls/prebuilt/mingw-x86/ssleay32.dll'
p4
aS'dtls/prebuilt/mingw-x86/libeay32.dll'
p5
aS'dtls/prebuilt/mingw-x86/cygssl-1.0.0.dll'
p6
atp7
a.