(dp1
S'docs'
p2
(dp3
S'doc:script.py|pyg'
p4
(dp5
S'filters-data'
p6
(lp7
(S'sectioned'
p8
S'script.py|pyg'
p9
S'.html'
p10
S'915aa3a78e3bba57de3bc1d4fcd0541e-001-pyg'
p11
(dp12
S'help'
p13
S'A document with named, ordered sections.\n\nSections can also contain arbitrary metadata.'
p14
sS'title'
p15
NsS'storage-type'
p16
S'jsonsectioned'
p17
sS'shortcut'
p18
NsS'canonical-name'
p19
S'script.py.html'
p20
sS'canonical-output'
p21
NsS'output-name'
p22
NsS'aliases'
p23
(lp24
g8
astp25
asS'output-data'
p26
(g8
g9
g10
g11
(dp27
g13
g14
sg15
Nsg16
g17
sg18
Nsg19
g20
sg21
Nsg22
Nsg23
g24
stp28
sg15
S'Script.Py'
p29
sS'finish_time'
p30
F1385490095.2467189
sS'start_time'
p31
F1385490095.1390729
sS'input-data'
p32
(S'generic'
p33
S'script.py'
p34
S'.py'
p35
S'915aa3a78e3bba57de3bc1d4fcd0541e-000'
p36
(dp37
g13
S'Data type representing generic binary or text-based data in a single blob.'
p38
sg15
Nsg16
g33
sg18
Nsg19
g34
sg21
Nsg22
Nsg23
(lp39
g33
astp40
sS'state'
p41
S'running'
p42
sS'elapsed'
p43
F0.10764598846435547
ssS'doc:script.py|py'
p44
(dp45
g6
(lp46
(S'generic'
p47
S'script.py|py'
p48
S'.txt'
p49
S'411e9aba000231403753d24ae1b0f17a-001-py'
p50
(dp51
g13
g38
sg15
Nsg16
g33
sg18
Nsg19
S'script.txt'
p52
sg21
Nsg22
Nsg23
g39
stp53
asg26
(g47
g48
g49
g50
(dp54
g13
g38
sg15
Nsg16
g33
sg18
Nsg19
g52
sg21
Nsg22
Nsg23
g39
stp55
sg15
S'Script'
p56
sg30
F1385490095.33518
sg31
F1385490095.2515481
sg32
(g33
S'script.py'
p57
S'.py'
p58
S'411e9aba000231403753d24ae1b0f17a-000'
p59
(dp60
g13
g38
sg15
Nsg16
g33
sg18
Nsg19
g57
sg21
Nsg22
Nsg23
g39
stp61
sg41
g42
sg43
F0.083631992340087891
ssS'doc:doc.html|jinja'
p62
(dp63
g6
(lp64
(g47
S'doc.html|jinja'
p65
S'.html'
p66
S'faf5bdad1a9b2279810d8bd1106ec1b6-001-jinja'
p67
(dp68
g13
g38
sg15
Nsg16
g33
sg18
Nsg19
S'doc.html'
p69
sg21
I01
sg22
Nsg23
g39
stp70
asg26
(g47
g65
g66
g67
(dp71
g13
g38
sg15
Nsg16
g33
sg18
Nsg19
g69
sg21
I01
sg22
Nsg23
g39
stp72
sg15
S'Doc'
p73
sg30
F1385490095.6307311
sg31
F1385490095.337095
sg32
(g33
S'doc.html'
p74
g66
S'faf5bdad1a9b2279810d8bd1106ec1b6-000'
p75
(dp76
g13
g38
sg15
Nsg16
g33
sg18
Nsg19
g74
sg21
Nsg22
Nsg23
g39
stp77
sg41
g42
sg43
F0.29363608360290527
sssS'filters_used'
p78
(lp79
S'pyg'
p80
aS'py'
p81
aS'jinja'
p82
ag80
ag81
ag82
ag80
ag81
ag82
asS'uuid'
p83
S'dff3b76e-9625-474d-936f-83ce05a4bd86'
p84
sS'doc_keys'
p85
(dp86
g50
S'doc:script.py|py'
p87
sg11
S'doc:script.py|pyg'
p88
sg67
S'doc:doc.html|jinja'
p89
ss.